; Function Attrs: mustprogress nofree norecurse nounwind memory(argmem: readwrite, inaccessiblemem: readwrite) uwtable
define hidden void @_ZN16G1MonotonicArena7SegmentC2EjjPS0_8MEMFLAGS(ptr noundef nonnull align 8 dereferenceable(32) %0, i32 noundef %1, i32 noundef %2, ptr noundef %3, i8 noundef zeroext %4) unnamed_addr #0 align 2 {
  store i32 %1, ptr %0, align 8
  %6 = getelementptr inbounds i8, ptr %0, i64 4
  store i32 %2, ptr %6, align 4
  %7 = getelementptr inbounds i8, ptr %0, i64 8
  store volatile ptr %3, ptr %7, align 8
  %8 = getelementptr inbounds i8, ptr %0, i64 16
  store volatile i32 0, ptr %8, align 8
  %9 = getelementptr inbounds i8, ptr %0, i64 20
  store i8 %4, ptr %9, align 4
  %10 = getelementptr inbounds i8, ptr %0, i64 128
  %11 = getelementptr inbounds i8, ptr %0, i64 24
  store ptr %10, ptr %11, align 8
  ret void
}